target datalayout = "e-m:e-p270:32:32-p271:32:32-p272:64:64-i64:64-i128:128-f80:128-n8:16:32:64-S128"
target triple = "x86_64-pc-linux-gnu"

%struct.lock_file = type { ptr }
%struct.strbuf = type { i64, i64, ptr }
%struct.stat = type { i64, i64, i64, i32, i32, i32, i32, i64, i64, i64, i64, %struct.timespec, %struct.timespec, %struct.timespec, [3 x i64] }
%struct.timespec = type { i64, i64 }
%struct.timeval = type { i64, i64 }

@pidfile = internal global ptr null, align 8
@__const.lock_repo_for_gc.sb = private unnamed_addr constant %struct.strbuf { i64 0, i64 0, ptr @strbuf_slopbuf }, align 8
@.str.91 = private unnamed_addr constant [8 x i8] c"unknown\00", align 1
@.str.92 = private unnamed_addr constant [7 x i8] c"gc.pid\00", align 1
@lock_repo_for_gc.locking_host = internal global [65 x i8] zeroinitializer, align 16
@lock_repo_for_gc.scan_fmt = internal global ptr null, align 8
@.str.93 = private unnamed_addr constant [9 x i8] c"%s %%%ds\00", align 1
@.str.94 = private unnamed_addr constant [4 x i8] c"%lu\00", align 1
@.str.95 = private unnamed_addr constant [2 x i8] c"r\00", align 1
@.str.96 = private unnamed_addr constant [7 x i8] c"%lu %s\00", align 1

; Function Attrs: inlinehint nounwind uwtable
define internal i32 @hold_lock_file_for_update_timeout(ptr noundef %0, ptr noundef %1, i32 noundef %2, i64 noundef %3) #6 {
  %5 = alloca ptr, align 8
  %6 = alloca ptr, align 8
  %7 = alloca i32, align 4
  %8 = alloca i64, align 8
  store ptr %0, ptr %5, align 8, !tbaa !111
  store ptr %1, ptr %6, align 8, !tbaa !11
  store i32 %2, ptr %7, align 4, !tbaa !4
  store i64 %3, ptr %8, align 8, !tbaa !92
  %9 = load ptr, ptr %5, align 8, !tbaa !111
  %10 = load ptr, ptr %6, align 8, !tbaa !11
  %11 = load i32, ptr %7, align 4, !tbaa !4
  %12 = load i64, ptr %8, align 8, !tbaa !92
  %13 = call i32 @hold_lock_file_for_update_timeout_mode(ptr noundef %9, ptr noundef %10, i32 noundef %11, i64 noundef %12, i32 noundef 438)
  ret i32 %13
}

; Function Attrs: inlinehint nounwind uwtable
define internal i32 @rollback_lock_file(ptr noundef %0) #6 {
  %2 = alloca ptr, align 8
  store ptr %0, ptr %2, align 8, !tbaa !111
  %3 = load ptr, ptr %2, align 8, !tbaa !111
  %4 = getelementptr inbounds nuw %struct.lock_file, ptr %3, i32 0, i32 0
  %5 = call i32 @delete_tempfile(ptr noundef %4)
  ret i32 %5
}

; Function Attrs: inlinehint nounwind uwtable
define internal i64 @git_time(ptr noundef %0) #6 {
  %2 = alloca ptr, align 8
  %3 = alloca %struct.timeval, align 8
  store ptr %0, ptr %2, align 8, !tbaa !140
  call void @llvm.lifetime.start.p0(i64 16, ptr %3) #11
  %4 = call i32 @gettimeofday(ptr noundef %3, ptr noundef null) #11
  %5 = load ptr, ptr %2, align 8, !tbaa !140
  %6 = icmp ne ptr %5, null
  br i1 %6, label %7, label %11

7:                                                ; preds = %1
  %8 = getelementptr inbounds nuw %struct.timeval, ptr %3, i32 0, i32 0
  %9 = load i64, ptr %8, align 8, !tbaa !146
  %10 = load ptr, ptr %2, align 8, !tbaa !140
  store i64 %9, ptr %10, align 8, !tbaa !92
  br label %11

11:                                               ; preds = %7, %1
  %12 = getelementptr inbounds nuw %struct.timeval, ptr %3, i32 0, i32 0
  %13 = load i64, ptr %12, align 8, !tbaa !146
  call void @llvm.lifetime.end.p0(i64 16, ptr %3) #11
  ret i64 %13
}

; Function Attrs: inlinehint nounwind uwtable
define internal i32 @hold_lock_file_for_update(ptr noundef %0, ptr noundef %1, i32 noundef %2) #6 {
  %4 = alloca ptr, align 8
  %5 = alloca ptr, align 8
  %6 = alloca i32, align 4
  store ptr %0, ptr %4, align 8, !tbaa !111
  store ptr %1, ptr %5, align 8, !tbaa !11
  store i32 %2, ptr %6, align 4, !tbaa !4
  %7 = load ptr, ptr %4, align 8, !tbaa !111
  %8 = load ptr, ptr %5, align 8, !tbaa !11
  %9 = load i32, ptr %6, align 4, !tbaa !4
  %10 = call i32 @hold_lock_file_for_update_timeout(ptr noundef %7, ptr noundef %8, i32 noundef %9, i64 noundef 0)
  ret i32 %10
}

; Function Attrs: inlinehint nounwind uwtable
define internal i32 @is_tempfile_active(ptr noundef %0) #6 {
  %2 = alloca ptr, align 8
  store ptr %0, ptr %2, align 8, !tbaa !106
  %3 = load ptr, ptr %2, align 8, !tbaa !106
  %4 = icmp ne ptr %3, null
  %5 = xor i1 %4, true
  %6 = xor i1 %5, true
  %7 = zext i1 %6 to i32
  ret i32 %7
}

; Function Attrs: nounwind uwtable
define internal ptr @lock_repo_for_gc(i32 noundef %0, ptr noundef %1) #0 {
  %3 = alloca ptr, align 8
  %4 = alloca i32, align 4
  %5 = alloca ptr, align 8
  %6 = alloca %struct.lock_file, align 8
  %7 = alloca [65 x i8], align 16
  %8 = alloca %struct.strbuf, align 8
  %9 = alloca %struct.stat, align 8
  %10 = alloca i64, align 8
  %11 = alloca ptr, align 8
  %12 = alloca i32, align 4
  %13 = alloca ptr, align 8
  %14 = alloca i32, align 4
  %15 = alloca i32, align 4
  store i32 %0, ptr %4, align 4, !tbaa !4
  store ptr %1, ptr %5, align 8, !tbaa !104
  call void @llvm.lifetime.start.p0(i64 8, ptr %6) #11
  call void @llvm.memset.p0.i64(ptr align 8 %6, i8 0, i64 8, i1 false)
  call void @llvm.lifetime.start.p0(i64 65, ptr %7) #11
  call void @llvm.lifetime.start.p0(i64 24, ptr %8) #11
  call void @llvm.memcpy.p0.p0.i64(ptr align 8 %8, ptr align 8 @__const.lock_repo_for_gc.sb, i64 24, i1 false)
  call void @llvm.lifetime.start.p0(i64 144, ptr %9) #11
  call void @llvm.lifetime.start.p0(i64 8, ptr %10) #11
  call void @llvm.lifetime.start.p0(i64 8, ptr %11) #11
  call void @llvm.lifetime.start.p0(i64 4, ptr %12) #11
  call void @llvm.lifetime.start.p0(i64 8, ptr %13) #11
  %16 = load ptr, ptr @pidfile, align 8, !tbaa !106
  %17 = call i32 @is_tempfile_active(ptr noundef %16)
  %18 = icmp ne i32 %17, 0
  br i1 %18, label %19, label %20

19:                                               ; preds = %2
  store ptr null, ptr %3, align 8
  store i32 1, ptr %14, align 4
  br label %114

20:                                               ; preds = %2
  %21 = getelementptr inbounds [65 x i8], ptr %7, i64 0, i64 0
  %22 = call i32 @xgethostname(ptr noundef %21, i64 noundef 65)
  %23 = icmp ne i32 %22, 0
  br i1 %23, label %24, label %27

24:                                               ; preds = %20
  %25 = getelementptr inbounds [65 x i8], ptr %7, i64 0, i64 0
  %26 = call i32 (ptr, i64, ptr, ...) @xsnprintf(ptr noundef %25, i64 noundef 65, ptr noundef @.str.91)
  br label %27

27:                                               ; preds = %24, %20
  %28 = call ptr (ptr, ...) @git_pathdup(ptr noundef @.str.92)
  store ptr %28, ptr %13, align 8, !tbaa !11
  %29 = load ptr, ptr %13, align 8, !tbaa !11
  %30 = call i32 @hold_lock_file_for_update(ptr noundef %6, ptr noundef %29, i32 noundef 1)
  store i32 %30, ptr %12, align 4, !tbaa !4
  %31 = load i32, ptr %4, align 4, !tbaa !4
  %32 = icmp ne i32 %31, 0
  br i1 %32, label %100, label %33

33:                                               ; preds = %27
  call void @llvm.lifetime.start.p0(i64 4, ptr %15) #11
  %34 = load ptr, ptr @lock_repo_for_gc.scan_fmt, align 8, !tbaa !11
  %35 = icmp ne ptr %34, null
  br i1 %35, label %38, label %36

36:                                               ; preds = %33
  %37 = call ptr (ptr, ...) @xstrfmt(ptr noundef @.str.93, ptr noundef @.str.94, i32 noundef 64)
  store ptr %37, ptr @lock_repo_for_gc.scan_fmt, align 8, !tbaa !11
  br label %38

38:                                               ; preds = %36, %33
  %39 = load ptr, ptr %13, align 8, !tbaa !11
  %40 = call ptr @git_fopen(ptr noundef %39, ptr noundef @.str.95)
  store ptr %40, ptr %11, align 8, !tbaa !50
  call void @llvm.memset.p0.i64(ptr align 16 @lock_repo_for_gc.locking_host, i8 0, i64 65, i1 false)
  %41 = load ptr, ptr %11, align 8, !tbaa !50
  %42 = icmp ne ptr %41, null
  br i1 %42, label %43, label %75

43:                                               ; preds = %38
  %44 = load ptr, ptr %11, align 8, !tbaa !50
  %45 = call i32 @fileno(ptr noundef %44) #11
  %46 = call i32 @fstat64(i32 noundef %45, ptr noundef %9) #11
  %47 = icmp ne i32 %46, 0
  br i1 %47, label %75, label %48

48:                                               ; preds = %43
  %49 = call i64 @git_time(ptr noundef null)
  %50 = getelementptr inbounds nuw %struct.stat, ptr %9, i32 0, i32 12
  %51 = getelementptr inbounds nuw %struct.timespec, ptr %50, i32 0, i32 0
  %52 = load i64, ptr %51, align 8, !tbaa !99
  %53 = sub nsw i64 %49, %52
  %54 = icmp sle i64 %53, 43200
  br i1 %54, label %55, label %75

55:                                               ; preds = %48
  %56 = load ptr, ptr %11, align 8, !tbaa !50
  %57 = load ptr, ptr @lock_repo_for_gc.scan_fmt, align 8, !tbaa !11
  %58 = call i32 (ptr, ptr, ...) @__isoc99_fscanf(ptr noundef %56, ptr noundef %57, ptr noundef %10, ptr noundef @lock_repo_for_gc.locking_host)
  %59 = icmp eq i32 %58, 2
  br i1 %59, label %60, label %75

60:                                               ; preds = %55
  %61 = getelementptr inbounds [65 x i8], ptr %7, i64 0, i64 0
  %62 = call i32 @strcmp(ptr noundef @lock_repo_for_gc.locking_host, ptr noundef %61) #13
  %63 = icmp ne i32 %62, 0
  br i1 %63, label %73, label %64

64:                                               ; preds = %60
  %65 = load i64, ptr %10, align 8, !tbaa !92
  %66 = trunc i64 %65 to i32
  %67 = call i32 @kill(i32 noundef %66, i32 noundef 0) #11
  %68 = icmp ne i32 %67, 0
  br i1 %68, label %69, label %73

69:                                               ; preds = %64
  %70 = call ptr @__errno_location() #14
  %71 = load i32, ptr %70, align 4, !tbaa !4
  %72 = icmp eq i32 %71, 1
  br label %73

73:                                               ; preds = %69, %64, %60
  %74 = phi i1 [ true, %64 ], [ true, %60 ], [ %72, %69 ]
  br label %75

75:                                               ; preds = %73, %55, %48, %43, %38
  %76 = phi i1 [ false, %55 ], [ false, %48 ], [ false, %43 ], [ false, %38 ], [ %74, %73 ]
  %77 = zext i1 %76 to i32
  store i32 %77, ptr %15, align 4, !tbaa !4
  %78 = load ptr, ptr %11, align 8, !tbaa !50
  %79 = icmp ne ptr %78, null
  br i1 %79, label %80, label %83

80:                                               ; preds = %75
  %81 = load ptr, ptr %11, align 8, !tbaa !50
  %82 = call i32 @fclose(ptr noundef %81)
  br label %83

83:                                               ; preds = %80, %75
  %84 = load i32, ptr %15, align 4, !tbaa !4
  %85 = icmp ne i32 %84, 0
  br i1 %85, label %86, label %96

86:                                               ; preds = %83
  %87 = load i32, ptr %12, align 4, !tbaa !4
  %88 = icmp sge i32 %87, 0
  br i1 %88, label %89, label %91

89:                                               ; preds = %86
  %90 = call i32 @rollback_lock_file(ptr noundef %6)
  br label %91

91:                                               ; preds = %89, %86
  %92 = load i64, ptr %10, align 8, !tbaa !92
  %93 = trunc i64 %92 to i32
  %94 = load ptr, ptr %5, align 8, !tbaa !104
  store i32 %93, ptr %94, align 4, !tbaa !4
  %95 = load ptr, ptr %13, align 8, !tbaa !11
  call void @free(ptr noundef %95) #11
  store ptr @lock_repo_for_gc.locking_host, ptr %3, align 8
  store i32 1, ptr %14, align 4
  br label %97

96:                                               ; preds = %83
  store i32 0, ptr %14, align 4
  br label %97

97:                                               ; preds = %96, %91
  call void @llvm.lifetime.end.p0(i64 4, ptr %15) #11
  %98 = load i32, ptr %14, align 4
  switch i32 %98, label %114 [
    i32 0, label %99
  ]

99:                                               ; preds = %97
  br label %100

100:                                              ; preds = %99, %27
  %101 = call i32 @getpid() #11
  %102 = sext i32 %101 to i64
  %103 = getelementptr inbounds [65 x i8], ptr %7, i64 0, i64 0
  call void (ptr, ptr, ...) @strbuf_addf(ptr noundef %8, ptr noundef @.str.96, i64 noundef %102, ptr noundef %103)
  %104 = load i32, ptr %12, align 4, !tbaa !4
  %105 = getelementptr inbounds nuw %struct.strbuf, ptr %8, i32 0, i32 2
  %106 = load ptr, ptr %105, align 8, !tbaa !102
  %107 = getelementptr inbounds nuw %struct.strbuf, ptr %8, i32 0, i32 1
  %108 = load i64, ptr %107, align 8, !tbaa !108
  %109 = call i64 @write_in_full(i32 noundef %104, ptr noundef %106, i64 noundef %108)
  call void @strbuf_release(ptr noundef %8)
  %110 = call i32 @commit_lock_file(ptr noundef %6)
  %111 = load ptr, ptr %13, align 8, !tbaa !11
  %112 = call ptr @register_tempfile(ptr noundef %111)
  store ptr %112, ptr @pidfile, align 8, !tbaa !106
  %113 = load ptr, ptr %13, align 8, !tbaa !11
  call void @free(ptr noundef %113) #11
  store ptr null, ptr %3, align 8
  store i32 1, ptr %14, align 4
  br label %114

114:                                              ; preds = %100, %97, %19
  call void @llvm.lifetime.end.p0(i64 8, ptr %13) #11
  call void @llvm.lifetime.end.p0(i64 4, ptr %12) #11
  call void @llvm.lifetime.end.p0(i64 8, ptr %11) #11
  call void @llvm.lifetime.end.p0(i64 8, ptr %10) #11
  call void @llvm.lifetime.end.p0(i64 144, ptr %9) #11
  call void @llvm.lifetime.end.p0(i64 24, ptr %8) #11
  call void @llvm.lifetime.end.p0(i64 65, ptr %7) #11
  call void @llvm.lifetime.end.p0(i64 8, ptr %6) #11
  %115 = load ptr, ptr %3, align 8
  ret ptr %115
}