; Function Attrs: nounwind uwtable
define internal fastcc noundef ptr @lock_repo_for_gc(i32 noundef %0, ptr noundef nonnull writeonly captures(none) %1) unnamed_addr #0 {
  %3 = alloca %struct.timeval, align 8
  %4 = alloca %struct.lock_file, align 8
  %5 = alloca [65 x i8], align 16
  %6 = alloca %struct.strbuf, align 8
  %7 = alloca %struct.stat, align 8
  %8 = alloca i64, align 8
  call void @llvm.lifetime.start.p0(i64 8, ptr nonnull %4) #21
  store i64 0, ptr %4, align 8
  call void @llvm.lifetime.start.p0(i64 65, ptr nonnull %5) #21
  call void @llvm.lifetime.start.p0(i64 24, ptr nonnull %6) #21
  call void @llvm.memcpy.p0.p0.i64(ptr noundef nonnull align 8 dereferenceable(24) %6, ptr noundef nonnull align 8 dereferenceable(24) @__const.get_maintpath.sb, i64 24, i1 false)
  call void @llvm.lifetime.start.p0(i64 144, ptr nonnull %7) #21
  call void @llvm.lifetime.start.p0(i64 8, ptr nonnull %8) #21
  %9 = load ptr, ptr @pidfile, align 8, !tbaa !104
  %.not33 = icmp eq ptr %9, null
  br i1 %.not33, label %10, label %66

10:                                               ; preds = %2
  %11 = call i32 @xgethostname(ptr noundef nonnull %5, i64 noundef 65) #21
  %.not18 = icmp eq i32 %11, 0
  br i1 %.not18, label %14, label %12

12:                                               ; preds = %10
  %13 = call i32 (ptr, i64, ptr, ...) @xsnprintf(ptr noundef nonnull %5, i64 noundef 65, ptr noundef nonnull @.str.91) #21
  br label %14

14:                                               ; preds = %12, %10
  %15 = call ptr (ptr, ...) @git_pathdup(ptr noundef nonnull @.str.92)
  %16 = call i32 @hold_lock_file_for_update_timeout_mode(ptr noundef nonnull %4, ptr noundef %15, i32 noundef range(i32 1, 3) 1, i64 noundef 0, i32 noundef 438) #21
  %.not19 = icmp eq i32 %0, 0
  br i1 %.not19, label %17, label %.critedge

17:                                               ; preds = %14
  %18 = load ptr, ptr @lock_repo_for_gc.scan_fmt, align 8, !tbaa !26
  %.not20 = icmp eq ptr %18, null
  br i1 %.not20, label %19, label %21

19:                                               ; preds = %17
  %20 = call ptr (ptr, ...) @xstrfmt(ptr noundef nonnull @.str.93, ptr noundef nonnull @.str.94, i32 noundef 64) #21
  store ptr %20, ptr @lock_repo_for_gc.scan_fmt, align 8, !tbaa !26
  br label %21

21:                                               ; preds = %19, %17
  %22 = call ptr @git_fopen(ptr noundef %15, ptr noundef nonnull @.str.95) #21
  call void @llvm.memset.p0.i64(ptr noundef nonnull align 16 dereferenceable(65) @lock_repo_for_gc.locking_host, i8 0, i64 65, i1 false)
  %.not21 = icmp eq ptr %22, null
  br i1 %.not21, label %.critedge, label %23

23:                                               ; preds = %21
  %24 = call i32 @fileno(ptr noundef nonnull %22) #21
  %25 = call i32 @fstat64(i32 noundef %24, ptr noundef nonnull %7) #21
  %.not22 = icmp eq i32 %25, 0
  br i1 %.not22, label %26, label %.thread27

26:                                               ; preds = %23
  call void @llvm.lifetime.start.p0(i64 16, ptr nonnull %3) #21
  %27 = call i32 @gettimeofday(ptr noundef nonnull %3, ptr noundef null) #21
  %28 = load i64, ptr %3, align 8, !tbaa !105
  call void @llvm.lifetime.end.p0(i64 16, ptr nonnull %3) #21
  %29 = getelementptr inbounds nuw i8, ptr %7, i64 88
  %30 = load i64, ptr %29, align 8, !tbaa !50
  %31 = sub nsw i64 %28, %30
  %32 = icmp slt i64 %31, 43201
  br i1 %32, label %33, label %.thread27

33:                                               ; preds = %26
  %34 = load ptr, ptr @lock_repo_for_gc.scan_fmt, align 8, !tbaa !26
  %35 = call i32 (ptr, ptr, ...) @__isoc99_fscanf(ptr noundef nonnull %22, ptr noundef %34, ptr noundef nonnull %8, ptr noundef nonnull @lock_repo_for_gc.locking_host) #21
  %36 = icmp eq i32 %35, 2
  br i1 %36, label %37, label %.thread27

37:                                               ; preds = %33
  %38 = call i32 @strcmp(ptr noundef nonnull dereferenceable(1) @lock_repo_for_gc.locking_host, ptr noundef nonnull dereferenceable(1) %5) #25
  %.not23 = icmp eq i32 %38, 0
  br i1 %.not23, label %39, label %.thread30

39:                                               ; preds = %37
  %40 = load i64, ptr %8, align 8, !tbaa !44
  %41 = trunc i64 %40 to i32
  %42 = call i32 @kill(i32 noundef %41, i32 noundef 0) #21
  %.not24 = icmp eq i32 %42, 0
  br i1 %.not24, label %.thread30, label %45

.thread27:                                        ; preds = %23, %26, %33
  %43 = call i32 @fclose(ptr noundef nonnull %22)
  br label %.critedge

.thread30:                                        ; preds = %37, %39
  %44 = call i32 @fclose(ptr noundef nonnull %22)
  br label %50

45:                                               ; preds = %39
  %46 = tail call ptr @__errno_location() #24
  %47 = load i32, ptr %46, align 4, !tbaa !4
  %48 = icmp eq i32 %47, 1
  %49 = call i32 @fclose(ptr noundef nonnull %22)
  br i1 %48, label %50, label %.critedge

50:                                               ; preds = %.thread30, %45
  %51 = icmp sgt i32 %16, -1
  br i1 %51, label %52, label %54

52:                                               ; preds = %50
  %53 = call i32 @delete_tempfile(ptr noundef nonnull %4) #21
  br label %54

54:                                               ; preds = %52, %50
  %55 = load i64, ptr %8, align 8, !tbaa !44
  %56 = trunc i64 %55 to i32
  store i32 %56, ptr %1, align 4, !tbaa !4
  br label %.sink.split

.critedge:                                        ; preds = %21, %.thread27, %45, %14
  %57 = call i32 @getpid() #21
  %58 = sext i32 %57 to i64
  call void (ptr, ptr, ...) @strbuf_addf(ptr noundef nonnull %6, ptr noundef nonnull @.str.96, i64 noundef %58, ptr noundef nonnull %5) #21
  %59 = getelementptr inbounds nuw i8, ptr %6, i64 16
  %60 = load ptr, ptr %59, align 8, !tbaa !53
  %61 = getelementptr inbounds nuw i8, ptr %6, i64 8
  %62 = load i64, ptr %61, align 8, !tbaa !107
  %63 = call i64 @write_in_full(i32 noundef %16, ptr noundef %60, i64 noundef %62) #21
  call void @strbuf_release(ptr noundef nonnull %6) #21
  %64 = call i32 @commit_lock_file(ptr noundef nonnull %4) #21
  %65 = call ptr @register_tempfile(ptr noundef %15) #21
  store ptr %65, ptr @pidfile, align 8, !tbaa !104
  br label %.sink.split

.sink.split:                                      ; preds = %.critedge, %54
  %.0.ph = phi ptr [ @lock_repo_for_gc.locking_host, %54 ], [ null, %.critedge ]
  call void @free(ptr noundef %15) #21
  br label %66

66:                                               ; preds = %.sink.split, %2
  %.0 = phi ptr [ null, %2 ], [ %.0.ph, %.sink.split ]
  call void @llvm.lifetime.end.p0(i64 8, ptr nonnull %8) #21
  call void @llvm.lifetime.end.p0(i64 144, ptr nonnull %7) #21
  call void @llvm.lifetime.end.p0(i64 24, ptr nonnull %6) #21
  call void @llvm.lifetime.end.p0(i64 65, ptr nonnull %5) #21
  call void @llvm.lifetime.end.p0(i64 8, ptr nonnull %4) #21
  ret ptr %.0
}